target datalayout = "e-m:e-p270:32:32-p271:32:32-p272:64:64-i64:64-i128:128-f80:128-n8:16:32:64-S128"
target triple = "x86_64-pc-linux-gnu"

%struct.WebPWorkerInterface = type { ptr, ptr, ptr, ptr, ptr, ptr }
%struct.WebPWorker = type { ptr, i32, ptr, ptr, ptr, i32 }
%struct.WebPWorkerImpl = type { %union.pthread_mutex_t, %union.pthread_cond_t, i64 }
%union.pthread_mutex_t = type { %struct.__pthread_mutex_s }
%struct.__pthread_mutex_s = type { i32, i32, i32, i32, i32, i16, i16, %struct.__pthread_internal_list }
%struct.__pthread_internal_list = type { ptr, ptr }
%union.pthread_cond_t = type { %struct.__pthread_cond_s }
%struct.__pthread_cond_s = type { %union.__atomic_wide_counter, %union.__atomic_wide_counter, [2 x i32], [2 x i32], i32, i32, [2 x i32] }
%union.__atomic_wide_counter = type { i64 }

@g_worker_interface = internal global %struct.WebPWorkerInterface { ptr @Init, ptr @Reset, ptr @Sync, ptr @Launch, ptr @Execute, ptr @End }, align 8

; Function Attrs: nounwind uwtable
define ptr @WebPGetWorkerInterface() #0 {
  ret ptr @g_worker_interface
}

; Function Attrs: nounwind uwtable
define internal ptr @ThreadLoop(ptr noundef %0) #0 {
  %2 = alloca ptr, align 8
  %3 = alloca ptr, align 8
  %4 = alloca ptr, align 8
  %5 = alloca i32, align 4
  store ptr %0, ptr %2, align 8, !tbaa !3
  call void @llvm.lifetime.start.p0(i64 8, ptr %3) #6
  %6 = load ptr, ptr %2, align 8, !tbaa !3
  store ptr %6, ptr %3, align 8, !tbaa !3
  call void @llvm.lifetime.start.p0(i64 8, ptr %4) #6
  %7 = load ptr, ptr %3, align 8, !tbaa !3
  %8 = getelementptr inbounds nuw %struct.WebPWorker, ptr %7, i32 0, i32 0
  %9 = load ptr, ptr %8, align 8, !tbaa !20
  store ptr %9, ptr %4, align 8, !tbaa !3
  call void @llvm.lifetime.start.p0(i64 4, ptr %5) #6
  store i32 0, ptr %5, align 4, !tbaa !18
  br label %10

10:                                               ; preds = %48, %1
  %11 = load i32, ptr %5, align 4, !tbaa !18
  %12 = icmp ne i32 %11, 0
  %13 = xor i1 %12, true
  br i1 %13, label %14, label %55

14:                                               ; preds = %10
  %15 = load ptr, ptr %4, align 8, !tbaa !3
  %16 = getelementptr inbounds nuw %struct.WebPWorkerImpl, ptr %15, i32 0, i32 0
  %17 = call i32 @pthread_mutex_lock(ptr noundef %16) #6
  br label %18

18:                                               ; preds = %23, %14
  %19 = load ptr, ptr %3, align 8, !tbaa !3
  %20 = getelementptr inbounds nuw %struct.WebPWorker, ptr %19, i32 0, i32 1
  %21 = load i32, ptr %20, align 8, !tbaa !15
  %22 = icmp eq i32 %21, 1
  br i1 %22, label %23, label %29

23:                                               ; preds = %18
  %24 = load ptr, ptr %4, align 8, !tbaa !3
  %25 = getelementptr inbounds nuw %struct.WebPWorkerImpl, ptr %24, i32 0, i32 1
  %26 = load ptr, ptr %4, align 8, !tbaa !3
  %27 = getelementptr inbounds nuw %struct.WebPWorkerImpl, ptr %26, i32 0, i32 0
  %28 = call i32 @pthread_cond_wait(ptr noundef %25, ptr noundef %27)
  br label %18, !llvm.loop !27

29:                                               ; preds = %18
  %30 = load ptr, ptr %3, align 8, !tbaa !3
  %31 = getelementptr inbounds nuw %struct.WebPWorker, ptr %30, i32 0, i32 1
  %32 = load i32, ptr %31, align 8, !tbaa !15
  %33 = icmp eq i32 %32, 2
  br i1 %33, label %34, label %41

34:                                               ; preds = %29
  %35 = call ptr @WebPGetWorkerInterface()
  %36 = getelementptr inbounds nuw %struct.WebPWorkerInterface, ptr %35, i32 0, i32 4
  %37 = load ptr, ptr %36, align 8, !tbaa !12
  %38 = load ptr, ptr %3, align 8, !tbaa !3
  call void %37(ptr noundef %38)
  %39 = load ptr, ptr %3, align 8, !tbaa !3
  %40 = getelementptr inbounds nuw %struct.WebPWorker, ptr %39, i32 0, i32 1
  store i32 1, ptr %40, align 8, !tbaa !15
  br label %48

41:                                               ; preds = %29
  %42 = load ptr, ptr %3, align 8, !tbaa !3
  %43 = getelementptr inbounds nuw %struct.WebPWorker, ptr %42, i32 0, i32 1
  %44 = load i32, ptr %43, align 8, !tbaa !15
  %45 = icmp eq i32 %44, 0
  br i1 %45, label %46, label %47

46:                                               ; preds = %41
  store i32 1, ptr %5, align 4, !tbaa !18
  br label %47

47:                                               ; preds = %46, %41
  br label %48

48:                                               ; preds = %47, %34
  %49 = load ptr, ptr %4, align 8, !tbaa !3
  %50 = getelementptr inbounds nuw %struct.WebPWorkerImpl, ptr %49, i32 0, i32 0
  %51 = call i32 @pthread_mutex_unlock(ptr noundef %50) #6
  %52 = load ptr, ptr %4, align 8, !tbaa !3
  %53 = getelementptr inbounds nuw %struct.WebPWorkerImpl, ptr %52, i32 0, i32 1
  %54 = call i32 @pthread_cond_signal(ptr noundef %53) #6
  br label %10, !llvm.loop !29

55:                                               ; preds = %10
  call void @llvm.lifetime.end.p0(i64 4, ptr %5) #6
  call void @llvm.lifetime.end.p0(i64 8, ptr %4) #6
  call void @llvm.lifetime.end.p0(i64 8, ptr %3) #6
  ret ptr null
}