; Function Attrs: nounwind uwtable
define internal noundef ptr @ThreadLoop(ptr noundef %0) #4 {
  %2 = load ptr, ptr %0, align 8, !tbaa !19
  %3 = getelementptr inbounds nuw i8, ptr %0, i64 8
  %4 = getelementptr inbounds nuw i8, ptr %2, i64 40
  br label %7

.critedge:                                        ; preds = %9, %13
  %5 = tail call i32 @pthread_mutex_unlock(ptr noundef %2) #8
  %6 = tail call i32 @pthread_cond_signal(ptr noundef nonnull %4) #8
  br label %7

7:                                                ; preds = %.critedge, %1
  %8 = tail call i32 @pthread_mutex_lock(ptr noundef %2) #8
  br label %9

9:                                                ; preds = %11, %7
  %10 = load i32, ptr %3, align 8, !tbaa !18
  switch i32 %10, label %.critedge [
    i32 1, label %11
    i32 2, label %13
    i32 0, label %.loopexit
  ]

11:                                               ; preds = %9
  %12 = tail call i32 @pthread_cond_wait(ptr noundef nonnull %4, ptr noundef %2) #8
  br label %9, !llvm.loop !28

13:                                               ; preds = %9
  %14 = load ptr, ptr getelementptr inbounds nuw (i8, ptr @g_worker_interface, i64 32), align 8, !tbaa !11
  tail call void %14(ptr noundef nonnull %0) #8
  store i32 1, ptr %3, align 8, !tbaa !18
  br label %.critedge

.loopexit:                                        ; preds = %9
  %15 = tail call i32 @pthread_mutex_unlock(ptr noundef %2) #8
  %16 = tail call i32 @pthread_cond_signal(ptr noundef nonnull %4) #8
  ret ptr null
}